(lp0
I5640
aI1700000
aI1680
aI7980
aI2490
aI35400
aI11800
aI89800
aI14800
aI66000
aI17300
aI196000
aI355000
aI23700
aI18500
aI3550
aI51600
aI140000
aI46500
aI55500
aI33300
aI9850
aI27100
aI2460
aI519000
aI54800
aI138000
aI11900
aI21500
aI5150
aI7
aI23800
aI27000
aI3350
aI31900
aI20400
aI6580
aI1950
aI15500
aI3510
aI5120
aI4700
aI15800
aI39500
aI9
aI2260
aI13500
aI19100
aI6920000
aI45400
aI682000
aI607000
aI23900
aI133000
aI3310
aI213000
aI12300
aI3110000
aI40700
aI40300
aI5050
aI236000
aI457000
aI21300
aI37100
aI34000
aI8
aI4990
aI16600
aI13300
aI15500
aI389000
aI21500
aI24200
aI7700
aI120000
aI23300
aI18700000
aI50400
aI2720
aI103000
aI29300
aI12500
aI9
aI15400
aI27100
aI29800
aI2680
aI123000
aI24200
aI59300
aI20900
aI12100
aI24400
aI3
aI4280
aI104000
aI134000
aI5790
aI8290
aI71000
aI113000
aI9
aI5910
aI60600
aI3650
aI4660
aI7480
aI9600
aI8110
aI4200
aI25300
aI83000
aI4170
aI9340
aI560000
aI2880
aI6700
aI21400
aI73700
aI42300
aI68700
aI1220000
aI41500
aI27100
aI5810
aI6570
aI30700
aI50000
aI9550
aI4530
aI6900
aI6180
aI128000
aI7730
aI8530
aI47100
aI7410
aI5980
aI1880
aI37300
aI3220
aI6400
aI5470
aI33300
aI4460
aI23100
aI37800
aI10500
aI8580
aI344000
aI5310
aI176000
aI157000
aI33100
aI23200
aI197000
aI25100
aI3010
aI32900
aI3260
aI6630
aI1470
aI11800
aI1630
aI7
aI165000
aI201000
aI25000
aI3050
aI12300
aI38500
aI2250
aI4130
aI3010
aI613000
aI3320
aI3390
aI864000
aI5160
aI6730
aI45900
aI8310
aI3290
aI2840
aI8220
aI8920
aI80400
aI219000
aI2910
aI2110
aI51700
aI5630
aI34200
aI133000
aI18400000
aI17900
aI13400
aI519000
aI71700
aI19500
aI2810
aI3170
aI16500
aI3590
aI11800
aI7
aI23000
aI21400
aI11100
aI3290
aI46400
aI16900
aI10400
aI8
aI58100
aI13900
aI7780000
aI8
aI18900
aI27600
aI204000
aI882
aI99800
aI36700
aI4010
aI867000
aI2120
aI3470
aI402000
aI4570
aI31800
aI47900
aI13600
aI11100
aI182000
aI7660
aI16300
aI89100
aI10100
aI8310
aI112000
aI25800
aI12100
aI28600
aI3250
aI62500
aI148000
aI380000
aI8460
aI890
aI3950
aI124000
aI12000
aI90600
aI34200
aI2320
aI7480
aI4580
aI22300
aI12100
aI5960
aI40400
aI11400
aI471000
aI14000
aI107000
aI12400
aI57000
aI2180
aI116000
aI124000
aI10200
aI96400
aI43100
aI9290
aI29700
aI191000
aI5180
aI46100
aI9640
aI42100
aI1460
aI53800
aI4230
aI910000
aI18800
aI20100
aI8
aI21500
aI84800
aI3490
aI62600
aI4240
aI18600
aI4900
aI117000
aI9320
aI9600
aI27400
aI25300
aI27900
aI2660
aI365000
aI34900
aI42000
aI78700
aI182000
aI146000
aI165000
aI17900
aI3620
aI33000
aI57800
aI49300
aI2640
aI3190
aI17500
aI12100
aI3640
aI269000
aI81300
aI160000
aI37200
aI31600
aI4280
aI19800
aI238000
aI10700
aI72400
aI117000
aI41300
aI6580
aI4780
aI66200
aI14100
aI6760
aI34600
aI46600
aI14900
aI55300
aI79700
aI77200
aI2340
aI3770
aI373000
aI4320
aI105000
aI727000
aI8480
aI122000
aI33900
aI33200
aI1820000
aI23800
aI33100
aI12000
aI811000
aI192000
aI5720
aI47800
aI93700
aI3110
aI4110
aI7020
aI687
aI58100
aI6070
aI6100
aI606000
aI2740
aI47900
aI15800
aI5820
aI6350
aI34000
aI15700
aI17300
aI7
aI4040
aI17700
aI10200
aI207000
aI170000
aI72600
aI33300
aI6520
aI47400
aI48100
aI3960
aI22100
aI4
aI115000
aI102000
aI55100
aI3730000
aI3820
aI8010
aI22700
aI8
aI707000
aI2220
aI23400
aI60500
aI114000
aI13900
aI33000
aI175000
aI32400
aI17200
aI2290
aI28100
aI10100000
aI5210
aI1450
aI9
aI76500
aI23400
aI329000
aI20100
aI7760
aI8030
aI26400
aI25300
aI3420
aI5
aI7870
aI2490
aI44200
aI12300
aI11200
aI3730
aI12800
aI25900
aI13300
aI2540
aI151000
aI48700
aI64200
aI4810
aI10700
aI4250
aI4390
aI17600
aI6370
aI599000
aI27900
aI3020
aI21500
aI17100
aI1460000000
aI2180
aI7650
aI3930
aI11100
aI5380
aI3180
aI10800
aI5160
aI10100
aI4040
aI26000
aI21800
aI2910
aI21200
aI219000
aI3100
aI23300
aI35700
aI2420
aI3620
aI2840
aI8420
aI32000
aI56900
aI1640
aI5550
aI71500
aI141000
aI4780
aI5480
aI6160
aI12900
aI40100
aI3900
aI9770
aI2330
aI40200
aI29800
aI3350
aI6210
aI17200
aI3770
aI20700
aI3930
aI5950
aI3700
aI27100
aI25500
aI22800
aI35400
aI3500
aI3400
aI59600
aI14200
aI5480
aI4670
aI2540
aI434000
aI338000
aI33300
aI13800
aI16800
aI14300
aI9
aI7190
aI38600
aI4270
aI7630
aI17400
aI4080
aI56600
aI9
aI10800
aI6810
aI14900
aI17900
aI26500
aI6160
aI24400000
aI52200
aI55700
aI40600
aI102000
aI4290
aI8
aI4060
aI4340
aI36600
aI1200000
aI322000
aI3220
aI9890
aI20500
aI2490
aI19000
aI22500
aI13300
aI6980
aI4420
aI29000
aI6760
aI57700
aI299000
aI5600
aI11100
aI8950
aI1020
aI101000
aI3070
aI10100
aI10300
aI108000
aI3040
aI3890
aI46500
aI70100
aI6230
aI13300
aI13800
aI169000
aI16000
aI21100
aI25500
aI19600
aI7
aI606
aI9400
aI2110
aI6950
aI11500
aI17000
aI118000
aI140000
aI37500
aI8000
aI3180
aI4000
aI225000
aI4700
aI8180
aI47800
aI35900
aI2100
aI9060
aI1290
aI333000
aI1770
aI356000
aI3710
aI27300
aI5150
aI24600
aI195000
aI2140
aI6640
aI2550
aI6450
aI11400
aI343000
aI125000
aI17700
aI146000
aI30800
aI426000
aI15700
aI32800
aI6060
aI205000
aI1760000
aI4360000
aI38600
aI5830
aI3750
aI9
aI2090
aI86000
aI458
aI7850
aI5190
aI2490
aI125000
aI26800
aI9
aI60400
aI123000
aI3820
aI5440
aI5
aI50600
aI17700
aI30400
aI57600
aI15400
aI23000
aI72400
aI5380
aI14100
aI29300000
aI8660
aI3810
aI14900
aI232000
aI7840
aI122000
aI2840
aI149000
aI2630
aI2500
aI2570
aI49700
aI13000
aI12300
aI3060
aI19500
aI52900
aI115000
aI39900
aI32300
aI24400
aI27300
aI17900
aI39400
aI1420
aI254000
aI2040
aI230000
aI174000
aI10100
aI2080
aI18400
aI3560
aI176000
aI372000
aI7770
aI28200
aI27400
aI7660
aI154000
aI692000
aI50200
aI16500
aI85600
aI428000
aI10700000
aI20800
aI3260
aI3540
aI14000
aI58200
aI7280
aI12200
aI13600
aI38000
aI11900
aI3210
aI2480
aI948000
aI249000
aI34000
aI3740
aI4190
aI7210
aI9
aI871000
aI129000
aI43400
aI23700
aI31700
aI35000000
aI7390
aI6680
aI9460
aI29200000
aI28900
aI30600
aI2510
aI319000
aI7520
aI31800
aI3440
aI9550
aI2620
aI499000
aI9540
aI950000
aI7510
aI269000
aI52400
aI54400
aI3870
aI3110
aI17000
aI314000
aI6490
aI333000
aI5860
aI7340
aI21000
aI6270
aI204000
aI41800
aI9190000
aI6090
aI7980
aI3860000
aI11400
aI302000
aI4940
aI39900
aI45000
aI221000
aI54300
aI69500
aI5930
aI19500
aI3540
aI39100
aI2330
aI10000
aI44400
aI5910
aI25700
aI636
aI8370
aI3210
aI1380000
aI64100
aI41000
aI20900
aI19300
aI347000
aI5130
aI8
aI3880
aI8800
aI9520
aI93300
aI96000
aI90800
aI9750
aI73600
aI4440
aI632000
aI12600
aI3510
aI2550
aI216000
aI438000
aI155000
aI13200
aI9260
aI7630
aI16800
aI4330
aI10500
aI17300
aI8
aI33900
aI41500
aI744000
aI14000
aI5130
aI83600
aI7
aI6930
aI16300000
aI224000
aI199000
aI109000
aI312000
aI1470
aI28200
aI28800
aI3170
aI7210
aI69800
aI69300
aI72100
aI41100
aI154000
aI16600
aI3140
aI64800000
aI10800
aI4620
aI27700
aI2770
aI10700
aI39100
aI638000
aI12900
aI22900
aI42900
aI72300
aI6320
aI206000
aI84400
aI288000
aI2840
aI451000
aI4410
aI24000
aI4
aI17600
aI12300
aI8720
aI36400
aI3460
aI3550
aI3340
aI2270
aI10400
aI24200
aI9
aI9860
aI53900000
aI8
aI22200
aI11400
aI4320
aI29900
aI8
aI3240
aI102000
aI9540
aI1940
aI216000
aI19100
aI2220
aI4
aI67900
aI18500
aI12900
aI145000
aI202000
aI10400
aI191000
aI13800
aI510000
aI76700
aI6090
aI172000
aI4140
aI14300
aI5490
aI5240
aI118000
aI61900
aI7380
aI127000
aI22700
aI25700
aI8590
aI45100
aI40300
aI8990
aI35700
aI1060000
aI4350
aI15700
aI33000
aI3700
aI4460
aI4050
aI61900
aI9040
aI67500
aI2970
aI25200
aI265000
aI47600
aI31800
aI3580
aI21000
aI45100
aI746000
aI41400
aI16400
aI6300
aI1020000
aI23700
aI7080
aI23100
aI173000
aI361000
aI28200
aI1990
aI3280
aI35300
aI5520
aI294000
aI3540
aI17900
aI5130
aI125000
aI1850
aI9230
aI4430
aI2750
aI6230
aI33100
aI3440
aI45200
aI8
aI1540000
aI686000
aI17100
aI432000
aI123000
aI35000
aI11900
aI3750
aI4390
aI2790
aI130000
aI17900
aI58600
aI2170000
aI141000
aI23200
aI5860
aI81100
aI10400
aI3870
aI302000
aI97200
aI61500
aI24300
aI537000
aI3850
aI3540
aI28300
aI4880
aI7120
aI1800
aI75700
aI43800
aI11400
aI12200
aI43700
aI20600
aI14000
aI7010
aI1730000
aI3400
aI11600
aI4980
aI6140
aI4440
aI2990
aI11500
aI4610
aI4330
aI4710
aI3500
aI139000
aI38100
aI140000
aI7200
aI3530
aI13600
aI244000
aI417000
aI27900
aI12900
aI5890
aI5940
aI136000
aI5530
aI7740
aI12600
aI36200
aI14100
aI15000
aI13300
aI44700
aI64100
aI10200
aI18700
aI24300
aI109000
aI3980
aI11400
aI13500
aI86500
aI2610
aI59600
aI1590
aI37300
aI238000
aI39900
aI24800
aI30400
aI273000
aI28600
aI22800
aI12400
aI441000
aI14000
aI69700
aI2440
aI13600
aI3150
aI11100
aI5310
aI21000
aI16000
aI20100
aI1760
aI441000
aI56700
aI3740
aI14800
aI5950
aI31300
aI7610
aI675000
aI2700
aI31500
aI166000
aI8220
aI3240
aI23400
aI2470
aI13900
aI50800
aI5380
aI7680
aI67400
aI10000
aI1200
aI5850
aI3630
aI9910
aI16700
aI682000
aI7950
aI73900
aI10600
aI8900
aI12400
aI39100
aI57100
aI2840
aI145000
aI232000
aI4510
aI7600
aI7650
aI17800
aI31200
aI132000
aI7680
aI10900
aI31300
aI872000
aI19100
aI20400
aI69500
aI1820
aI38200
aI8130
aI174000
aI47300
aI7110
aI606000
aI4420
aI16900
aI741000
aI8230
aI1350
aI32400
aI30600
aI2820
aI5480000
aI36600000
aI99600
aI1590
aI397000
aI151000
aI44400
aI21100
aI5490
aI5250
aI9
aI21300
aI3940
aI4690
aI5330
aI3370
aI460000
aI58500
aI17200
aI50700
aI46800
aI16300
aI18200
aI10600
aI5220
aI107000
aI14400000
aI7090
aI70500000
aI98500
aI12100
aI51100
aI4340
aI13200
aI94400
aI174000
aI384000
aI13800
aI8
aI10800
aI3210000
aI10900
aI17400
aI4420
aI4890
aI2830
aI73400
aI11800
aI39700
aI13900
aI35400
aI13500
aI6280
aI11900
aI7350
aI3570
aI2510
aI9010
aI87700
aI32100
aI57400
aI89200
aI7210000
aI3130
aI44900
aI2510000
aI56500
aI182000
aI3940
aI118000
aI67200
aI104000
aI4830
aI7210
aI907000
aI24500
aI6680
aI13000
aI109000
aI2920
aI44400
aI14800
aI3510
aI194000
aI6290
aI13200
aI43600
aI41900
aI5990
aI115
aI43900
aI598000000
aI110000
aI202000
aI10200
aI219000
aI28600
aI10600
aI11000
aI16100
aI12000
aI466000
aI19200
aI200000
aI3490
aI28200
aI19700
aI6260000000
aI83200
aI38800
aI4200
aI44300
aI24400
aI75600
aI8730
aI212000
aI22800
aI17400
aI60800
aI11300
aI28100
aI5790
aI32000
aI18600
aI67
aI135000
aI15100
aI3410
aI10300
aI25800
aI6260
aI112000
aI6480
aI4570
aI37400
aI36400
aI114000
aI472000
aI108000
aI73800
aI38800
aI22900
aI11900
aI7680
aI28100
aI1690
aI5350
aI226000
aI8060
aI9300000
aI58200000
aI43600
aI1810000
aI3400
aI4270
aI884000
aI67500
aI9460
aI40500
aI19000
aI1310
aI29500
aI9160
aI27600
aI8350
aI4430
aI9
aI307000
aI288000
aI8
aI3990
aI3020
aI33100
aI115000
aI25200
aI808000
aI5790
aI3990
aI26400000
aI3
aI12900
aI9140
aI40600
aI9460
aI8110
aI11900
aI2940
aI32700
aI26200
aI3240
aI3
aI78500
aI4740
aI472000
aI41900
aI6270
aI7110
aI27300
aI20600
aI4300
aI15700000
aI4010
aI44000
aI10600
aI6160
aI684000
aI7470
aI213000
aI22100
aI8600
aI4660
aI10900
aI42800
aI158000
aI12500
aI4810
aI2930
aI7430
aI59700
aI4800
aI10400
aI2850000
aI62200
aI15500
aI14100
aI7710
aI8
aI6470
aI11300
aI14700
aI4
aI170000
aI125000
aI14100
aI8660
aI45400
aI5960
aI52500
aI54800
aI19200
aI3940
aI9430
aI134000
aI1540
aI62400
aI21200
aI17600
aI19100
aI64000
aI66800
aI145000
aI9410
aI95100
aI26400
aI3570
aI8730
aI3200
aI20600
aI46300
aI8510
aI1460
aI23300
aI21500
aI13300
aI17800
aI3490
aI4160
aI17800
aI13500
aI219000
aI3480
aI529000000
aI3760
aI4200
aI7880000000
aI59600
aI17500
aI146000
aI3970
aI4260
aI3810
aI5940
aI103000
aI12500000
aI31000
aI41500
aI9910
aI340000
aI287000
aI25500
aI5390
aI3990
aI9
aI28900
aI51000
aI3550
aI6210
aI941000
aI4440
aI8910
aI56
aI6060
aI42100
aI9960
aI421000
aI8450
aI17600
aI4190
aI3490
aI16200
aI21000
aI275000
aI107000
aI3610
aI47900
aI7790
aI41100
aI29400
aI44400
aI4610
aI39700
aI183000
aI4260
aI3550
aI27700
aI776000
aI1690000
aI350000
aI80600
aI37900
aI1100000
aI8810
aI4570000
aI54500
aI485000
aI96000
aI15400
aI1250000
aI7920
aI2300
aI29500
aI27500
aI181000
aI309000
aI106000
aI12500000
aI4340
aI9900000
aI22300
aI3740
aI724000
aI4390
aI186000
aI217000
aI16000
aI1780000
aI451000
aI3810
aI209000
aI13700
aI96500
aI64300
aI91600
aI65200
aI30200
aI8500
aI8740
aI13700
aI55000
aI30100
aI22100
aI3520
aI366000
aI709000
aI35800
aI9
aI78500
aI3080
aI11200000
aI38500
aI135000
aI72800
aI3720
aI3040
aI3450
a.